target datalayout = "e-m:e-p270:32:32-p271:32:32-p272:64:64-i64:64-i128:128-f80:128-n8:16:32:64-S128"
target triple = "x86_64-pc-linux-gnu"

; Function Attrs: nounwind uwtable
define internal i32 @big2_checkPiTarget(ptr noundef %0, ptr noundef %1, ptr noundef %2, ptr noundef %3) #0 {
  %5 = alloca i32, align 4
  %6 = alloca ptr, align 8
  %7 = alloca ptr, align 8
  %8 = alloca ptr, align 8
  %9 = alloca ptr, align 8
  %10 = alloca i32, align 4
  %11 = alloca i32, align 4
  store ptr %0, ptr %6, align 8, !tbaa !45
  store ptr %1, ptr %7, align 8, !tbaa !4
  store ptr %2, ptr %8, align 8, !tbaa !4
  store ptr %3, ptr %9, align 8, !tbaa !23
  call void @llvm.lifetime.start.p0(i64 4, ptr %10) #4
  store i32 0, ptr %10, align 4, !tbaa !16
  %12 = load ptr, ptr %9, align 8, !tbaa !23
  store i32 11, ptr %12, align 4, !tbaa !16
  %13 = load ptr, ptr %8, align 8, !tbaa !4
  %14 = load ptr, ptr %7, align 8, !tbaa !4
  %15 = ptrtoint ptr %13 to i64
  %16 = ptrtoint ptr %14 to i64
  %17 = sub i64 %15, %16
  %18 = icmp ne i64 %17, 6
  br i1 %18, label %19, label %20

19:                                               ; preds = %4
  store i32 1, ptr %5, align 4
  store i32 1, ptr %11, align 4
  br label %78

20:                                               ; preds = %4
  %21 = load ptr, ptr %7, align 8, !tbaa !4
  %22 = getelementptr inbounds i8, ptr %21, i64 0
  %23 = load i8, ptr %22, align 1, !tbaa !13
  %24 = sext i8 %23 to i32
  %25 = icmp eq i32 %24, 0
  br i1 %25, label %26, label %31

26:                                               ; preds = %20
  %27 = load ptr, ptr %7, align 8, !tbaa !4
  %28 = getelementptr inbounds i8, ptr %27, i64 1
  %29 = load i8, ptr %28, align 1, !tbaa !13
  %30 = sext i8 %29 to i32
  br label %32

31:                                               ; preds = %20
  br label %32

32:                                               ; preds = %31, %26
  %33 = phi i32 [ %30, %26 ], [ -1, %31 ]
  switch i32 %33, label %35 [
    i32 120, label %36
    i32 88, label %34
  ]

34:                                               ; preds = %32
  store i32 1, ptr %10, align 4, !tbaa !16
  br label %36

35:                                               ; preds = %32
  store i32 1, ptr %5, align 4
  store i32 1, ptr %11, align 4
  br label %78

36:                                               ; preds = %34, %32
  %37 = load ptr, ptr %7, align 8, !tbaa !4
  %38 = getelementptr inbounds i8, ptr %37, i64 2
  store ptr %38, ptr %7, align 8, !tbaa !4
  %39 = load ptr, ptr %7, align 8, !tbaa !4
  %40 = getelementptr inbounds i8, ptr %39, i64 0
  %41 = load i8, ptr %40, align 1, !tbaa !13
  %42 = sext i8 %41 to i32
  %43 = icmp eq i32 %42, 0
  br i1 %43, label %44, label %49

44:                                               ; preds = %36
  %45 = load ptr, ptr %7, align 8, !tbaa !4
  %46 = getelementptr inbounds i8, ptr %45, i64 1
  %47 = load i8, ptr %46, align 1, !tbaa !13
  %48 = sext i8 %47 to i32
  br label %50

49:                                               ; preds = %36
  br label %50

50:                                               ; preds = %49, %44
  %51 = phi i32 [ %48, %44 ], [ -1, %49 ]
  switch i32 %51, label %53 [
    i32 109, label %54
    i32 77, label %52
  ]

52:                                               ; preds = %50
  store i32 1, ptr %10, align 4, !tbaa !16
  br label %54

53:                                               ; preds = %50
  store i32 1, ptr %5, align 4
  store i32 1, ptr %11, align 4
  br label %78

54:                                               ; preds = %52, %50
  %55 = load ptr, ptr %7, align 8, !tbaa !4
  %56 = getelementptr inbounds i8, ptr %55, i64 2
  store ptr %56, ptr %7, align 8, !tbaa !4
  %57 = load ptr, ptr %7, align 8, !tbaa !4
  %58 = getelementptr inbounds i8, ptr %57, i64 0
  %59 = load i8, ptr %58, align 1, !tbaa !13
  %60 = sext i8 %59 to i32
  %61 = icmp eq i32 %60, 0
  br i1 %61, label %62, label %67

62:                                               ; preds = %54
  %63 = load ptr, ptr %7, align 8, !tbaa !4
  %64 = getelementptr inbounds i8, ptr %63, i64 1
  %65 = load i8, ptr %64, align 1, !tbaa !13
  %66 = sext i8 %65 to i32
  br label %68

67:                                               ; preds = %54
  br label %68

68:                                               ; preds = %67, %62
  %69 = phi i32 [ %66, %62 ], [ -1, %67 ]
  switch i32 %69, label %71 [
    i32 108, label %72
    i32 76, label %70
  ]

70:                                               ; preds = %68
  store i32 1, ptr %10, align 4, !tbaa !16
  br label %72

71:                                               ; preds = %68
  store i32 1, ptr %5, align 4
  store i32 1, ptr %11, align 4
  br label %78

72:                                               ; preds = %70, %68
  %73 = load i32, ptr %10, align 4, !tbaa !16
  %74 = icmp ne i32 %73, 0
  br i1 %74, label %75, label %76

75:                                               ; preds = %72
  store i32 0, ptr %5, align 4
  store i32 1, ptr %11, align 4
  br label %78

76:                                               ; preds = %72
  %77 = load ptr, ptr %9, align 8, !tbaa !23
  store i32 12, ptr %77, align 4, !tbaa !16
  store i32 1, ptr %5, align 4
  store i32 1, ptr %11, align 4
  br label %78

78:                                               ; preds = %76, %75, %71, %53, %35, %19
  call void @llvm.lifetime.end.p0(i64 4, ptr %10) #4
  %79 = load i32, ptr %5, align 4
  ret i32 %79
}