; Function Attrs: mustprogress nofree norecurse nosync nounwind willreturn memory(argmem: readwrite) uwtable
define internal fastcc range(i32 0, 2) i32 @big2_checkPiTarget(ptr noundef %0, ptr noundef %1, ptr noundef nonnull writeonly captures(none) initializes((0, 4)) %2) unnamed_addr #10 {
  store i32 11, ptr %2, align 4, !tbaa !14
  %4 = ptrtoint ptr %1 to i64
  %5 = ptrtoint ptr %0 to i64
  %6 = sub i64 %4, %5
  %.not = icmp eq i64 %6, 6
  br i1 %.not, label %7, label %.thread

7:                                                ; preds = %3
  %8 = load i8, ptr %0, align 1, !tbaa !9
  %9 = icmp eq i8 %8, 0
  br i1 %9, label %10, label %.thread

10:                                               ; preds = %7
  %11 = getelementptr inbounds nuw i8, ptr %0, i64 1
  %12 = load i8, ptr %11, align 1, !tbaa !9
  switch i8 %12, label %.thread [
    i8 120, label %14
    i8 88, label %13
  ]

13:                                               ; preds = %10
  br label %14

14:                                               ; preds = %13, %10
  %.0 = phi i32 [ 1, %13 ], [ 0, %10 ]
  %15 = getelementptr inbounds nuw i8, ptr %0, i64 2
  %16 = load i8, ptr %15, align 1, !tbaa !9
  %17 = icmp eq i8 %16, 0
  br i1 %17, label %18, label %.thread

18:                                               ; preds = %14
  %19 = getelementptr inbounds nuw i8, ptr %0, i64 3
  %20 = load i8, ptr %19, align 1, !tbaa !9
  switch i8 %20, label %.thread [
    i8 109, label %22
    i8 77, label %21
  ]

21:                                               ; preds = %18
  br label %22

22:                                               ; preds = %21, %18
  %.1 = phi i32 [ 1, %21 ], [ %.0, %18 ]
  %23 = getelementptr inbounds nuw i8, ptr %0, i64 4
  %24 = load i8, ptr %23, align 1, !tbaa !9
  %25 = icmp eq i8 %24, 0
  br i1 %25, label %26, label %.thread

26:                                               ; preds = %22
  %27 = getelementptr inbounds nuw i8, ptr %0, i64 5
  %28 = load i8, ptr %27, align 1, !tbaa !9
  switch i8 %28, label %.thread [
    i8 108, label %29
    i8 76, label %.thread3
  ]

.thread3:                                         ; preds = %26
  br label %.thread

29:                                               ; preds = %26
  %.not14 = icmp eq i32 %.1, 0
  br i1 %.not14, label %30, label %.thread

30:                                               ; preds = %29
  store i32 12, ptr %2, align 4, !tbaa !14
  br label %.thread

.thread:                                          ; preds = %22, %14, %7, %.thread3, %29, %26, %18, %10, %3, %30
  %.013 = phi i32 [ 1, %30 ], [ 1, %3 ], [ 1, %10 ], [ 1, %18 ], [ 1, %26 ], [ 0, %29 ], [ 0, %.thread3 ], [ 1, %7 ], [ 1, %14 ], [ 1, %22 ]
  ret i32 %.013
}